target datalayout = "e-m:e-p270:32:32-p271:32:32-p272:64:64-i64:64-i128:128-f80:128-n8:16:32:64-S128"
target triple = "x86_64-pc-linux-gnu"

%struct.SortTuple = type { ptr, i64, i8, i32 }
%struct.BrinSortTuple = type { i64, %struct.BrinTuple }
%struct.BrinTuple = type { i32, i8 }

; Function Attrs: nounwind uwtable
define internal void @removeabbrev_index_brin(ptr noundef %0, ptr noundef %1, i32 noundef %2) #0 {
  %4 = alloca ptr, align 8
  %5 = alloca ptr, align 8
  %6 = alloca i32, align 4
  %7 = alloca i32, align 4
  %8 = alloca ptr, align 8
  store ptr %0, ptr %4, align 8
  store ptr %1, ptr %5, align 8
  store i32 %2, ptr %6, align 4
  call void @llvm.lifetime.start.p0(i64 4, ptr %7) #6
  store i32 0, ptr %7, align 4
  br label %9

9:                                                ; preds = %30, %3
  %10 = load i32, ptr %7, align 4
  %11 = load i32, ptr %6, align 4
  %12 = icmp slt i32 %10, %11
  br i1 %12, label %13, label %33

13:                                               ; preds = %9
  call void @llvm.lifetime.start.p0(i64 8, ptr %8) #6
  %14 = load ptr, ptr %5, align 8
  %15 = load i32, ptr %7, align 4
  %16 = sext i32 %15 to i64
  %17 = getelementptr inbounds %struct.SortTuple, ptr %14, i64 %16
  %18 = getelementptr inbounds nuw %struct.SortTuple, ptr %17, i32 0, i32 0
  %19 = load ptr, ptr %18, align 8
  store ptr %19, ptr %8, align 8
  %20 = load ptr, ptr %8, align 8
  %21 = getelementptr inbounds nuw %struct.BrinSortTuple, ptr %20, i32 0, i32 1
  %22 = getelementptr inbounds nuw %struct.BrinTuple, ptr %21, i32 0, i32 0
  %23 = load i32, ptr %22, align 8
  %24 = zext i32 %23 to i64
  %25 = load ptr, ptr %5, align 8
  %26 = load i32, ptr %7, align 4
  %27 = sext i32 %26 to i64
  %28 = getelementptr inbounds %struct.SortTuple, ptr %25, i64 %27
  %29 = getelementptr inbounds nuw %struct.SortTuple, ptr %28, i32 0, i32 1
  store i64 %24, ptr %29, align 8
  call void @llvm.lifetime.end.p0(i64 8, ptr %8) #6
  br label %30

30:                                               ; preds = %13
  %31 = load i32, ptr %7, align 4
  %32 = add i32 %31, 1
  store i32 %32, ptr %7, align 4
  br label %9, !llvm.loop !18

33:                                               ; preds = %9
  call void @llvm.lifetime.end.p0(i64 4, ptr %7) #6
  ret void
}